; Function Attrs: nounwind uwtable
define void @_ZTv0_n24_N5boost10test_tools18output_test_streamD1Ev(ptr noundef %0) unnamed_addr #20 align 2 {
  %2 = load ptr, ptr %0, align 8, !tbaa !3
  %3 = getelementptr inbounds i8, ptr %2, i64 -24
  %4 = load i64, ptr %3, align 8
  %5 = getelementptr inbounds i8, ptr %0, i64 %4
  tail call void @_ZN5boost10test_tools18output_test_streamD2Ev(ptr noundef nonnull align 8 dereferenceable(120) %5, ptr noundef nonnull @_ZTTN5boost10test_tools18output_test_streamE) #30
  %6 = getelementptr inbounds i8, ptr %5, i64 120
  tail call void @_ZNSt8ios_baseD2Ev(ptr noundef nonnull align 8 dereferenceable(264) %6) #30
  ret void
}